; ModuleID = 'source-C-CXX/23/573.c'
source_filename = "source-C-CXX/23/573.c"
target datalayout = "e-m:e-p270:32:32-p271:32:32-p272:64:64-i64:64-f80:128-n8:16:32:64-S128"
target triple = "x86_64-pc-linux-gnu"

@.str = private unnamed_addr constant [3 x i8] c"%s\00", align 1
@.str.1 = private unnamed_addr constant [6 x i8] c"%s\0A%s\00", align 1

; Function Attrs: nofree nounwind sspstrong uwtable
define dso_local void @main() local_unnamed_addr #0 {
  %1 = alloca [50 x i8], align 16
  %2 = alloca [50 x i8], align 16
  %3 = alloca [50 x i8], align 16
  %4 = getelementptr inbounds [50 x i8], [50 x i8]* %1, i64 0, i64 0
  call void @llvm.lifetime.start.p0i8(i64 50, i8* nonnull %4) #5
  %5 = getelementptr inbounds [50 x i8], [50 x i8]* %2, i64 0, i64 0
  call void @llvm.lifetime.start.p0i8(i64 50, i8* nonnull %5) #5
  %6 = getelementptr inbounds [50 x i8], [50 x i8]* %3, i64 0, i64 0
  call void @llvm.lifetime.start.p0i8(i64 50, i8* nonnull %6) #5
  %7 = call i32 (i8*, ...) @__isoc99_scanf(i8* getelementptr inbounds ([3 x i8], [3 x i8]* @.str, i64 0, i64 0), i8* nonnull %4)
  %8 = icmp eq i32 %7, -1
  br i1 %8, label %29, label %9

9:                                                ; preds = %0, %25
  %10 = phi i32 [ %19, %25 ], [ 0, %0 ]
  %11 = phi i32 [ %26, %25 ], [ 100, %0 ]
  %12 = call i64 @strlen(i8* noundef nonnull %4) #6
  %13 = sext i32 %10 to i64
  %14 = icmp ugt i64 %12, %13
  br i1 %14, label %15, label %18

15:                                               ; preds = %9
  %16 = call i8* @strcpy(i8* noundef nonnull %5, i8* noundef nonnull %4) #5
  %17 = trunc i64 %12 to i32
  br label %18

18:                                               ; preds = %15, %9
  %19 = phi i32 [ %17, %15 ], [ %10, %9 ]
  %20 = sext i32 %11 to i64
  %21 = icmp ult i64 %12, %20
  br i1 %21, label %22, label %25

22:                                               ; preds = %18
  %23 = call i8* @strcpy(i8* noundef nonnull %6, i8* noundef nonnull %4) #5
  %24 = trunc i64 %12 to i32
  br label %25

25:                                               ; preds = %22, %18
  %26 = phi i32 [ %24, %22 ], [ %11, %18 ]
  %27 = call i32 (i8*, ...) @__isoc99_scanf(i8* getelementptr inbounds ([3 x i8], [3 x i8]* @.str, i64 0, i64 0), i8* nonnull %4)
  %28 = icmp eq i32 %27, -1
  br i1 %28, label %29, label %9, !llvm.loop !5

29:                                               ; preds = %25, %0
  %30 = call i32 (i8*, ...) @printf(i8* nonnull dereferenceable(1) getelementptr inbounds ([6 x i8], [6 x i8]* @.str.1, i64 0, i64 0), i8* nonnull %5, i8* nonnull %6)
  call void @llvm.lifetime.end.p0i8(i64 50, i8* nonnull %6) #5
  call void @llvm.lifetime.end.p0i8(i64 50, i8* nonnull %5) #5
  call void @llvm.lifetime.end.p0i8(i64 50, i8* nonnull %4) #5
  ret void
}

; Function Attrs: argmemonly mustprogress nofree nosync nounwind willreturn
declare void @llvm.lifetime.start.p0i8(i64 immarg, i8* nocapture) #1

; Function Attrs: nofree nounwind
declare noundef i32 @__isoc99_scanf(i8* nocapture noundef readonly, ...) local_unnamed_addr #2

; Function Attrs: argmemonly mustprogress nofree nounwind readonly willreturn
declare i64 @strlen(i8* nocapture) local_unnamed_addr #3

; Function Attrs: argmemonly mustprogress nofree nounwind willreturn
declare i8* @strcpy(i8* noalias returned writeonly, i8* noalias nocapture readonly) local_unnamed_addr #4

; Function Attrs: nofree nounwind
declare noundef i32 @printf(i8* nocapture noundef readonly, ...) local_unnamed_addr #2

; Function Attrs: argmemonly mustprogress nofree nosync nounwind willreturn
declare void @llvm.lifetime.end.p0i8(i64 immarg, i8* nocapture) #1


!llvm.module.flags = !{!0, !1, !2, !3}
!llvm.ident = !{!4}

!0 = !{i32 1, !"wchar_size", i32 4}
!1 = !{i32 7, !"PIC Level", i32 2}
!2 = !{i32 7, !"PIE Level", i32 2}
!3 = !{i32 7, !"uwtable", i32 1}
!4 = !{!"clang version 13.0.0"}
!5 = distinct !{!5, !6}
!6 = !{!"llvm.loop.mustprogress"}
